; Function Attrs: nounwind uwtable
define internal fastcc void @Card_AddClause(ptr noundef captures(none) %0, ptr noundef nonnull %1, ptr noundef nonnull %2) unnamed_addr #0 {
  %4 = ptrtoint ptr %2 to i64
  %5 = ptrtoint ptr %1 to i64
  %6 = sub i64 %4, %5
  %7 = lshr exact i64 %6, 2
  %8 = trunc i64 %7 to i32
  %9 = getelementptr inbounds nuw i8, ptr %0, i64 4
  %10 = load i32, ptr %9, align 4
  %11 = load i32, ptr %0, align 8
  %12 = icmp eq i32 %10, %11
  br i1 %12, label %13, label %.Vec_IntGrow.exit10_crit_edge.i

.Vec_IntGrow.exit10_crit_edge.i:                  ; preds = %3
  %.phi.trans.insert.i = getelementptr inbounds nuw i8, ptr %0, i64 8
  %.pre.i = load ptr, ptr %.phi.trans.insert.i, align 8
  br label %Vec_IntPush.exit

13:                                               ; preds = %3
  %14 = icmp slt i32 %10, 16
  br i1 %14, label %15, label %23

15:                                               ; preds = %13
  %16 = getelementptr inbounds nuw i8, ptr %0, i64 8
  %17 = load ptr, ptr %16, align 8
  %.not9.i.i = icmp eq ptr %17, null
  br i1 %.not9.i.i, label %20, label %18

18:                                               ; preds = %15
  %19 = tail call dereferenceable_or_null(64) ptr @realloc(ptr noundef nonnull %17, i64 noundef 64) #14
  br label %Vec_IntGrow.exit.i

20:                                               ; preds = %15
  %21 = tail call noalias dereferenceable_or_null(64) ptr @malloc(i64 noundef 64) #15
  br label %Vec_IntGrow.exit.i

Vec_IntGrow.exit.i:                               ; preds = %20, %18
  %22 = phi ptr [ %19, %18 ], [ %21, %20 ]
  store ptr %22, ptr %16, align 8
  store i32 16, ptr %0, align 8
  br label %Vec_IntPush.exit

23:                                               ; preds = %13
  %24 = shl nuw nsw i32 %10, 1
  %25 = getelementptr inbounds nuw i8, ptr %0, i64 8
  %26 = load ptr, ptr %25, align 8
  %.not9.i9.i = icmp eq ptr %26, null
  %27 = zext nneg i32 %24 to i64
  %28 = shl nuw nsw i64 %27, 2
  br i1 %.not9.i9.i, label %31, label %29

29:                                               ; preds = %23
  %30 = tail call ptr @realloc(ptr noundef nonnull %26, i64 noundef %28) #14
  br label %33

31:                                               ; preds = %23
  %32 = tail call noalias ptr @malloc(i64 noundef %28) #15
  br label %33

33:                                               ; preds = %31, %29
  %34 = phi ptr [ %30, %29 ], [ %32, %31 ]
  store ptr %34, ptr %25, align 8
  store i32 %24, ptr %0, align 8
  br label %Vec_IntPush.exit

Vec_IntPush.exit:                                 ; preds = %.Vec_IntGrow.exit10_crit_edge.i, %Vec_IntGrow.exit.i, %33
  %35 = phi ptr [ %.pre.i, %.Vec_IntGrow.exit10_crit_edge.i ], [ %34, %33 ], [ %22, %Vec_IntGrow.exit.i ]
  %36 = load i32, ptr %9, align 4
  %37 = add nsw i32 %36, 1
  store i32 %37, ptr %9, align 4
  %38 = sext i32 %36 to i64
  %39 = getelementptr inbounds i32, ptr %35, i64 %38
  store i32 %8, ptr %39, align 4
  %40 = icmp ult ptr %1, %2
  br i1 %40, label %.lr.ph, label %._crit_edge

.lr.ph:                                           ; preds = %Vec_IntPush.exit
  %.phi.trans.insert.i8 = getelementptr inbounds nuw i8, ptr %0, i64 8
  br label %41

41:                                               ; preds = %.lr.ph, %Vec_IntPush.exit13
  %.014 = phi ptr [ %1, %.lr.ph ], [ %42, %Vec_IntPush.exit13 ]
  %42 = getelementptr inbounds nuw i8, ptr %.014, i64 4
  %43 = load i32, ptr %.014, align 4
  %44 = load i32, ptr %9, align 4
  %45 = load i32, ptr %0, align 8
  %46 = icmp eq i32 %44, %45
  br i1 %46, label %47, label %.Vec_IntGrow.exit10_crit_edge.i7

.Vec_IntGrow.exit10_crit_edge.i7:                 ; preds = %41
  %.pre.i9 = load ptr, ptr %.phi.trans.insert.i8, align 8
  br label %Vec_IntPush.exit13

47:                                               ; preds = %41
  %48 = icmp slt i32 %44, 16
  br i1 %48, label %49, label %56

49:                                               ; preds = %47
  %50 = load ptr, ptr %.phi.trans.insert.i8, align 8
  %.not9.i.i11 = icmp eq ptr %50, null
  br i1 %.not9.i.i11, label %53, label %51

51:                                               ; preds = %49
  %52 = tail call dereferenceable_or_null(64) ptr @realloc(ptr noundef nonnull %50, i64 noundef 64) #14
  br label %Vec_IntGrow.exit.i12

53:                                               ; preds = %49
  %54 = tail call noalias dereferenceable_or_null(64) ptr @malloc(i64 noundef 64) #15
  br label %Vec_IntGrow.exit.i12

Vec_IntGrow.exit.i12:                             ; preds = %53, %51
  %55 = phi ptr [ %52, %51 ], [ %54, %53 ]
  store ptr %55, ptr %.phi.trans.insert.i8, align 8
  store i32 16, ptr %0, align 8
  br label %Vec_IntPush.exit13

56:                                               ; preds = %47
  %57 = shl nuw nsw i32 %44, 1
  %58 = load ptr, ptr %.phi.trans.insert.i8, align 8
  %.not9.i9.i10 = icmp eq ptr %58, null
  %59 = zext nneg i32 %57 to i64
  %60 = shl nuw nsw i64 %59, 2
  br i1 %.not9.i9.i10, label %63, label %61

61:                                               ; preds = %56
  %62 = tail call ptr @realloc(ptr noundef nonnull %58, i64 noundef %60) #14
  br label %65

63:                                               ; preds = %56
  %64 = tail call noalias ptr @malloc(i64 noundef %60) #15
  br label %65

65:                                               ; preds = %63, %61
  %66 = phi ptr [ %62, %61 ], [ %64, %63 ]
  store ptr %66, ptr %.phi.trans.insert.i8, align 8
  store i32 %57, ptr %0, align 8
  br label %Vec_IntPush.exit13

Vec_IntPush.exit13:                               ; preds = %.Vec_IntGrow.exit10_crit_edge.i7, %Vec_IntGrow.exit.i12, %65
  %67 = phi ptr [ %.pre.i9, %.Vec_IntGrow.exit10_crit_edge.i7 ], [ %66, %65 ], [ %55, %Vec_IntGrow.exit.i12 ]
  %68 = load i32, ptr %9, align 4
  %69 = add nsw i32 %68, 1
  store i32 %69, ptr %9, align 4
  %70 = sext i32 %68 to i64
  %71 = getelementptr inbounds i32, ptr %67, i64 %70
  store i32 %43, ptr %71, align 4
  %72 = icmp ult ptr %42, %2
  br i1 %72, label %41, label %._crit_edge, !llvm.loop !31

._crit_edge:                                      ; preds = %Vec_IntPush.exit13, %Vec_IntPush.exit
  ret void
}